target datalayout = "e-m:e-p270:32:32-p271:32:32-p272:64:64-i64:64-i128:128-f80:128-n8:16:32:64-S128"
target triple = "x86_64-pc-linux-gnu"

%struct.intrinsic_func2_info = type { ptr, ptr }

; Function Attrs: nounwind uwtable
define dso_local ptr @_PyCompile_GetBinaryIntrinsicName(i32 noundef %0) #0 {
  %2 = alloca ptr, align 8
  %3 = alloca i32, align 4
  store i32 %0, ptr %3, align 4, !tbaa !23
  %4 = load i32, ptr %3, align 4, !tbaa !23
  %5 = icmp slt i32 %4, 0
  br i1 %5, label %9, label %6

6:                                                ; preds = %1
  %7 = load i32, ptr %3, align 4, !tbaa !23
  %8 = icmp sgt i32 %7, 5
  br i1 %8, label %9, label %10

9:                                                ; preds = %6, %1
  store ptr null, ptr %2, align 8
  br label %17

10:                                               ; preds = %6
  %11 = load i32, ptr %3, align 4, !tbaa !23
  %12 = sext i32 %11 to i64
  %13 = getelementptr [6 x %struct.intrinsic_func2_info], ptr @_PyIntrinsics_BinaryFunctions, i64 0, i64 %12
  %14 = getelementptr inbounds nuw %struct.intrinsic_func2_info, ptr %13, i32 0, i32 1
  %15 = load ptr, ptr %14, align 8, !tbaa !33
  %16 = call ptr @PyUnicode_FromString(ptr noundef %15)
  store ptr %16, ptr %2, align 8
  br label %17

17:                                               ; preds = %10, %9
  %18 = load ptr, ptr %2, align 8
  ret ptr %18
}